; Function Attrs: nounwind uwtable
define hidden i32 @Curl_cw_out_done(ptr noundef %0) local_unnamed_addr #1 {
  %.not = icmp eq ptr %0, null
  br i1 %.not, label %17, label %2

2:                                                ; preds = %1
  %3 = getelementptr inbounds nuw i8, ptr %0, i64 2658
  %4 = load i64, ptr %3, align 2
  %5 = and i64 %4, 2147483648
  %.not8 = icmp eq i64 %5, 0
  br i1 %.not8, label %17, label %6

6:                                                ; preds = %2
  %7 = getelementptr inbounds nuw i8, ptr %0, i64 4864
  %8 = load ptr, ptr %7, align 8, !tbaa !22
  %.not9 = icmp eq ptr %8, null
  br i1 %.not9, label %15, label %9

9:                                                ; preds = %6
  %10 = getelementptr inbounds nuw i8, ptr %8, i64 8
  %11 = load i32, ptr %10, align 8, !tbaa !86
  %12 = icmp sgt i32 %11, 0
  %13 = load i32, ptr getelementptr inbounds nuw (i8, ptr @Curl_trc_feat_write, i64 8), align 8
  %14 = icmp sgt i32 %13, 0
  %or.cond = select i1 %12, i1 %14, i1 false
  br i1 %or.cond, label %16, label %17

15:                                               ; preds = %6
  %.old = load i32, ptr getelementptr inbounds nuw (i8, ptr @Curl_trc_feat_write, i64 8), align 8, !tbaa !86
  %.old1 = icmp sgt i32 %.old, 0
  br i1 %.old1, label %16, label %17

16:                                               ; preds = %9, %15
  tail call void (ptr, ptr, ...) @Curl_trc_write(ptr noundef nonnull %0, ptr noundef nonnull @.str.5) #5
  br label %17

17:                                               ; preds = %1, %2, %9, %15, %16
  %18 = tail call ptr @Curl_cwriter_get_by_type(ptr noundef %0, ptr noundef nonnull @Curl_cwt_out) #5
  %.not.i = icmp eq ptr %18, null
  br i1 %.not.i, label %cw_out_flush.exit, label %19

19:                                               ; preds = %17
  %20 = getelementptr inbounds nuw i8, ptr %18, i64 40
  %21 = load i8, ptr %20, align 8
  %22 = and i8 %21, 2
  %.not24.i = icmp eq i8 %22, 0
  br i1 %.not24.i, label %23, label %cw_out_flush.exit

23:                                               ; preds = %19
  %24 = and i8 %21, 1
  %.not26.i = icmp eq i8 %24, 0
  br i1 %.not26.i, label %25, label %cw_out_flush.exit

25:                                               ; preds = %23
  %26 = getelementptr inbounds nuw i8, ptr %18, i64 32
  %27 = tail call fastcc i32 @cw_out_flush_chain(ptr noundef nonnull %18, ptr noundef %0, ptr noundef nonnull %26)
  %.not27.i = icmp eq i32 %27, 0
  br i1 %.not27.i, label %cw_out_flush.exit, label %28

28:                                               ; preds = %25
  %29 = load i8, ptr %20, align 8
  %30 = or i8 %29, 2
  store i8 %30, ptr %20, align 8
  %31 = load ptr, ptr %26, align 8, !tbaa !11
  %.not5.i.i = icmp eq ptr %31, null
  br i1 %.not5.i.i, label %cw_out_flush.exit, label %.lr.ph.i.i

.lr.ph.i.i:                                       ; preds = %28, %.lr.ph.i.i
  %32 = phi ptr [ %33, %.lr.ph.i.i ], [ %31, %28 ]
  %33 = load ptr, ptr %32, align 8, !tbaa !14
  %34 = getelementptr inbounds nuw i8, ptr %32, i64 8
  tail call void @Curl_dyn_free(ptr noundef nonnull %34) #5
  %35 = load ptr, ptr @Curl_cfree, align 8, !tbaa !19
  tail call void %35(ptr noundef nonnull %32) #5
  store ptr %33, ptr %26, align 8, !tbaa !11
  %.not.i.i = icmp eq ptr %33, null
  br i1 %.not.i.i, label %cw_out_flush.exit, label %.lr.ph.i.i, !llvm.loop !20

cw_out_flush.exit:                                ; preds = %.lr.ph.i.i, %17, %19, %23, %25, %28
  %.1.i = phi i32 [ 0, %17 ], [ 0, %25 ], [ %27, %28 ], [ 0, %23 ], [ 23, %19 ], [ %27, %.lr.ph.i.i ]
  ret i32 %.1.i
}